; ModuleID = '20/339.c'
source_filename = "20/339.c"
target datalayout = "e-m:e-p270:32:32-p271:32:32-p272:64:64-i64:64-f80:128-n8:16:32:64-S128"
target triple = "x86_64-pc-linux-gnu"

@.str = private unnamed_addr constant [6 x i8] c"%s %s\00", align 1
@.str.1 = private unnamed_addr constant [4 x i8] c"%s\0A\00", align 1

; Function Attrs: noinline nounwind uwtable
define dso_local void @main() #0 {
  %1 = alloca i32, align 4
  %2 = alloca i32, align 4
  %3 = alloca i32, align 4
  %4 = alloca i32, align 4
  %5 = alloca [11 x i8], align 1
  %6 = alloca [4 x i8], align 1
  %7 = alloca [14 x i8], align 1
  %8 = alloca [11 x i8], align 1
  store i32 0, i32* %4, align 4
  br label %9

9:                                                ; preds = %87, %0
  %10 = getelementptr inbounds [11 x i8], [11 x i8]* %5, i64 0, i64 0
  %11 = getelementptr inbounds [4 x i8], [4 x i8]* %6, i64 0, i64 0
  %12 = call i32 (i8*, ...) @__isoc99_scanf(i8* getelementptr inbounds ([6 x i8], [6 x i8]* @.str, i64 0, i64 0), i8* %10, i8* %11)
  %13 = icmp ne i32 %12, -1
  br i1 %13, label %14, label %93

14:                                               ; preds = %9
  store i32 0, i32* %1, align 4
  br label %15

15:                                               ; preds = %25, %14
  %16 = load i32, i32* %1, align 4
  %17 = icmp slt i32 %16, 14
  br i1 %17, label %18, label %28

18:                                               ; preds = %15
  %19 = load i32, i32* %1, align 4
  %20 = sext i32 %19 to i64
  %21 = getelementptr inbounds [14 x i8], [14 x i8]* %7, i64 0, i64 %20
  store i8 0, i8* %21, align 1
  %22 = load i32, i32* %1, align 4
  %23 = sext i32 %22 to i64
  %24 = getelementptr inbounds [11 x i8], [11 x i8]* %8, i64 0, i64 %23
  store i8 0, i8* %24, align 1
  br label %25

25:                                               ; preds = %18
  %26 = load i32, i32* %1, align 4
  %27 = add nsw i32 %26, 1
  store i32 %27, i32* %1, align 4
  br label %15

28:                                               ; preds = %15
  store i32 0, i32* %4, align 4
  store i32 0, i32* %1, align 4
  br label %29

29:                                               ; preds = %52, %28
  %30 = load i32, i32* %1, align 4
  %31 = sext i32 %30 to i64
  %32 = getelementptr inbounds [11 x i8], [11 x i8]* %5, i64 0, i64 %31
  %33 = load i8, i8* %32, align 1
  %34 = sext i8 %33 to i32
  %35 = icmp ne i32 %34, 0
  br i1 %35, label %36, label %55

36:                                               ; preds = %29
  %37 = load i32, i32* %1, align 4
  %38 = sext i32 %37 to i64
  %39 = getelementptr inbounds [11 x i8], [11 x i8]* %5, i64 0, i64 %38
  %40 = load i8, i8* %39, align 1
  %41 = sext i8 %40 to i32
  %42 = load i32, i32* %4, align 4
  %43 = icmp sgt i32 %41, %42
  br i1 %43, label %44, label %51

44:                                               ; preds = %36
  %45 = load i32, i32* %1, align 4
  %46 = sext i32 %45 to i64
  %47 = getelementptr inbounds [11 x i8], [11 x i8]* %5, i64 0, i64 %46
  %48 = load i8, i8* %47, align 1
  %49 = sext i8 %48 to i32
  store i32 %49, i32* %4, align 4
  %50 = load i32, i32* %1, align 4
  store i32 %50, i32* %3, align 4
  br label %51

51:                                               ; preds = %44, %36
  br label %52

52:                                               ; preds = %51
  %53 = load i32, i32* %1, align 4
  %54 = add nsw i32 %53, 1
  store i32 %54, i32* %1, align 4
  br label %29

55:                                               ; preds = %29
  %56 = getelementptr inbounds [14 x i8], [14 x i8]* %7, i64 0, i64 0
  %57 = getelementptr inbounds [11 x i8], [11 x i8]* %5, i64 0, i64 0
  %58 = load i32, i32* %3, align 4
  %59 = add nsw i32 %58, 1
  %60 = sext i32 %59 to i64
  %61 = call i8* @strncpy(i8* %56, i8* %57, i64 %60) #3
  %62 = getelementptr inbounds [14 x i8], [14 x i8]* %7, i64 0, i64 0
  %63 = getelementptr inbounds [4 x i8], [4 x i8]* %6, i64 0, i64 0
  %64 = call i8* @strcat(i8* %62, i8* %63) #3
  %65 = load i32, i32* %3, align 4
  %66 = add nsw i32 %65, 1
  store i32 %66, i32* %1, align 4
  store i32 0, i32* %2, align 4
  br label %67

67:                                               ; preds = %82, %55
  %68 = load i32, i32* %1, align 4
  %69 = sext i32 %68 to i64
  %70 = getelementptr inbounds [11 x i8], [11 x i8]* %5, i64 0, i64 %69
  %71 = load i8, i8* %70, align 1
  %72 = sext i8 %71 to i32
  %73 = icmp ne i32 %72, 0
  br i1 %73, label %74, label %87

74:                                               ; preds = %67
  %75 = load i32, i32* %1, align 4
  %76 = sext i32 %75 to i64
  %77 = getelementptr inbounds [11 x i8], [11 x i8]* %5, i64 0, i64 %76
  %78 = load i8, i8* %77, align 1
  %79 = load i32, i32* %2, align 4
  %80 = sext i32 %79 to i64
  %81 = getelementptr inbounds [11 x i8], [11 x i8]* %8, i64 0, i64 %80
  store i8 %78, i8* %81, align 1
  br label %82

82:                                               ; preds = %74
  %83 = load i32, i32* %1, align 4
  %84 = add nsw i32 %83, 1
  store i32 %84, i32* %1, align 4
  %85 = load i32, i32* %2, align 4
  %86 = add nsw i32 %85, 1
  store i32 %86, i32* %2, align 4
  br label %67

87:                                               ; preds = %67
  %88 = getelementptr inbounds [14 x i8], [14 x i8]* %7, i64 0, i64 0
  %89 = getelementptr inbounds [11 x i8], [11 x i8]* %8, i64 0, i64 0
  %90 = call i8* @strcat(i8* %88, i8* %89) #3
  %91 = getelementptr inbounds [14 x i8], [14 x i8]* %7, i64 0, i64 0
  %92 = call i32 (i8*, ...) @printf(i8* getelementptr inbounds ([4 x i8], [4 x i8]* @.str.1, i64 0, i64 0), i8* %91)
  br label %9

93:                                               ; preds = %9
  ret void
}

declare dso_local i32 @__isoc99_scanf(i8*, ...) #1

; Function Attrs: nounwind
declare dso_local i8* @strncpy(i8*, i8*, i64) #2

; Function Attrs: nounwind
declare dso_local i8* @strcat(i8*, i8*) #2

declare dso_local i32 @printf(i8*, ...) #1


!llvm.module.flags = !{!0}
!llvm.ident = !{!1}

!0 = !{i32 1, !"wchar_size", i32 4}
!1 = !{!"clang version 10.0.0-4ubuntu1 "}
